; ModuleID = '35/2281.c'
source_filename = "35/2281.c"
target datalayout = "e-m:e-p270:32:32-p271:32:32-p272:64:64-i64:64-f80:128-n8:16:32:64-S128"
target triple = "x86_64-pc-linux-gnu"

@.str = private unnamed_addr constant [6 x i8] c"%d,%d\00", align 1
@.str.1 = private unnamed_addr constant [3 x i8] c"%d\00", align 1
@.str.2 = private unnamed_addr constant [6 x i8] c"%d+%d\00", align 1
@.str.3 = private unnamed_addr constant [3 x i8] c"No\00", align 1

; Function Attrs: noinline nounwind uwtable
define dso_local i32 @main() #0 {
  %1 = alloca i32, align 4
  %2 = alloca [8 x [8 x i32]], align 16
  %3 = alloca i32, align 4
  %4 = alloca i32, align 4
  %5 = alloca i32, align 4
  %6 = alloca i32, align 4
  %7 = alloca i32, align 4
  %8 = alloca i32, align 4
  %9 = alloca i32, align 4
  %10 = alloca i32, align 4
  %11 = alloca i32, align 4
  store i32 0, i32* %1, align 4
  store i32 0, i32* %9, align 4
  %12 = call i32 (i8*, ...) @__isoc99_scanf(i8* getelementptr inbounds ([6 x i8], [6 x i8]* @.str, i64 0, i64 0), i32* %10, i32* %11)
  store i32 0, i32* %3, align 4
  br label %13

13:                                               ; preds = %34, %0
  %14 = load i32, i32* %3, align 4
  %15 = load i32, i32* %10, align 4
  %16 = icmp slt i32 %14, %15
  br i1 %16, label %17, label %37

17:                                               ; preds = %13
  store i32 0, i32* %4, align 4
  br label %18

18:                                               ; preds = %30, %17
  %19 = load i32, i32* %4, align 4
  %20 = load i32, i32* %11, align 4
  %21 = icmp slt i32 %19, %20
  br i1 %21, label %22, label %33

22:                                               ; preds = %18
  %23 = load i32, i32* %3, align 4
  %24 = sext i32 %23 to i64
  %25 = getelementptr inbounds [8 x [8 x i32]], [8 x [8 x i32]]* %2, i64 0, i64 %24
  %26 = load i32, i32* %4, align 4
  %27 = sext i32 %26 to i64
  %28 = getelementptr inbounds [8 x i32], [8 x i32]* %25, i64 0, i64 %27
  %29 = call i32 (i8*, ...) @__isoc99_scanf(i8* getelementptr inbounds ([3 x i8], [3 x i8]* @.str.1, i64 0, i64 0), i32* %28)
  br label %30

30:                                               ; preds = %22
  %31 = load i32, i32* %4, align 4
  %32 = add nsw i32 %31, 1
  store i32 %32, i32* %4, align 4
  br label %18

33:                                               ; preds = %18
  br label %34

34:                                               ; preds = %33
  %35 = load i32, i32* %3, align 4
  %36 = add nsw i32 %35, 1
  store i32 %36, i32* %3, align 4
  br label %13

37:                                               ; preds = %13
  store i32 0, i32* %3, align 4
  br label %38

38:                                               ; preds = %120, %37
  %39 = load i32, i32* %3, align 4
  %40 = load i32, i32* %10, align 4
  %41 = icmp slt i32 %39, %40
  br i1 %41, label %42, label %123

42:                                               ; preds = %38
  store i32 0, i32* %4, align 4
  br label %43

43:                                               ; preds = %116, %42
  %44 = load i32, i32* %4, align 4
  %45 = load i32, i32* %11, align 4
  %46 = icmp slt i32 %44, %45
  br i1 %46, label %47, label %119

47:                                               ; preds = %43
  store i32 0, i32* %7, align 4
  store i32 0, i32* %8, align 4
  store i32 0, i32* %5, align 4
  br label %48

48:                                               ; preds = %72, %47
  %49 = load i32, i32* %5, align 4
  %50 = load i32, i32* %11, align 4
  %51 = icmp slt i32 %49, %50
  br i1 %51, label %52, label %75

52:                                               ; preds = %48
  %53 = load i32, i32* %3, align 4
  %54 = sext i32 %53 to i64
  %55 = getelementptr inbounds [8 x [8 x i32]], [8 x [8 x i32]]* %2, i64 0, i64 %54
  %56 = load i32, i32* %4, align 4
  %57 = sext i32 %56 to i64
  %58 = getelementptr inbounds [8 x i32], [8 x i32]* %55, i64 0, i64 %57
  %59 = load i32, i32* %58, align 4
  %60 = load i32, i32* %3, align 4
  %61 = sext i32 %60 to i64
  %62 = getelementptr inbounds [8 x [8 x i32]], [8 x [8 x i32]]* %2, i64 0, i64 %61
  %63 = load i32, i32* %5, align 4
  %64 = sext i32 %63 to i64
  %65 = getelementptr inbounds [8 x i32], [8 x i32]* %62, i64 0, i64 %64
  %66 = load i32, i32* %65, align 4
  %67 = icmp sge i32 %59, %66
  br i1 %67, label %68, label %71

68:                                               ; preds = %52
  %69 = load i32, i32* %7, align 4
  %70 = add nsw i32 %69, 1
  store i32 %70, i32* %7, align 4
  br label %71

71:                                               ; preds = %68, %52
  br label %72

72:                                               ; preds = %71
  %73 = load i32, i32* %5, align 4
  %74 = add nsw i32 %73, 1
  store i32 %74, i32* %5, align 4
  br label %48

75:                                               ; preds = %48
  store i32 0, i32* %6, align 4
  br label %76

76:                                               ; preds = %100, %75
  %77 = load i32, i32* %6, align 4
  %78 = load i32, i32* %10, align 4
  %79 = icmp slt i32 %77, %78
  br i1 %79, label %80, label %103

80:                                               ; preds = %76
  %81 = load i32, i32* %3, align 4
  %82 = sext i32 %81 to i64
  %83 = getelementptr inbounds [8 x [8 x i32]], [8 x [8 x i32]]* %2, i64 0, i64 %82
  %84 = load i32, i32* %4, align 4
  %85 = sext i32 %84 to i64
  %86 = getelementptr inbounds [8 x i32], [8 x i32]* %83, i64 0, i64 %85
  %87 = load i32, i32* %86, align 4
  %88 = load i32, i32* %6, align 4
  %89 = sext i32 %88 to i64
  %90 = getelementptr inbounds [8 x [8 x i32]], [8 x [8 x i32]]* %2, i64 0, i64 %89
  %91 = load i32, i32* %4, align 4
  %92 = sext i32 %91 to i64
  %93 = getelementptr inbounds [8 x i32], [8 x i32]* %90, i64 0, i64 %92
  %94 = load i32, i32* %93, align 4
  %95 = icmp sle i32 %87, %94
  br i1 %95, label %96, label %99

96:                                               ; preds = %80
  %97 = load i32, i32* %8, align 4
  %98 = add nsw i32 %97, 1
  store i32 %98, i32* %8, align 4
  br label %99

99:                                               ; preds = %96, %80
  br label %100

100:                                              ; preds = %99
  %101 = load i32, i32* %6, align 4
  %102 = add nsw i32 %101, 1
  store i32 %102, i32* %6, align 4
  br label %76

103:                                              ; preds = %76
  %104 = load i32, i32* %7, align 4
  %105 = load i32, i32* %11, align 4
  %106 = icmp eq i32 %104, %105
  br i1 %106, label %107, label %115

107:                                              ; preds = %103
  %108 = load i32, i32* %8, align 4
  %109 = load i32, i32* %10, align 4
  %110 = icmp eq i32 %108, %109
  br i1 %110, label %111, label %115

111:                                              ; preds = %107
  %112 = load i32, i32* %3, align 4
  %113 = load i32, i32* %4, align 4
  %114 = call i32 (i8*, ...) @printf(i8* getelementptr inbounds ([6 x i8], [6 x i8]* @.str.2, i64 0, i64 0), i32 %112, i32 %113)
  store i32 1, i32* %9, align 4
  br label %115

115:                                              ; preds = %111, %107, %103
  br label %116

116:                                              ; preds = %115
  %117 = load i32, i32* %4, align 4
  %118 = add nsw i32 %117, 1
  store i32 %118, i32* %4, align 4
  br label %43

119:                                              ; preds = %43
  br label %120

120:                                              ; preds = %119
  %121 = load i32, i32* %3, align 4
  %122 = add nsw i32 %121, 1
  store i32 %122, i32* %3, align 4
  br label %38

123:                                              ; preds = %38
  %124 = load i32, i32* %9, align 4
  %125 = icmp eq i32 %124, 0
  br i1 %125, label %126, label %128

126:                                              ; preds = %123
  %127 = call i32 (i8*, ...) @printf(i8* getelementptr inbounds ([3 x i8], [3 x i8]* @.str.3, i64 0, i64 0))
  br label %128

128:                                              ; preds = %126, %123
  ret i32 0
}

declare dso_local i32 @__isoc99_scanf(i8*, ...) #1

declare dso_local i32 @printf(i8*, ...) #1


!llvm.module.flags = !{!0}
!llvm.ident = !{!1}

!0 = !{i32 1, !"wchar_size", i32 4}
!1 = !{!"clang version 10.0.0-4ubuntu1 "}
